target datalayout = "e-m:e-p270:32:32-p271:32:32-p272:64:64-i64:64-i128:128-f80:128-n8:16:32:64-S128"
target triple = "x86_64-pc-linux-gnu"

%struct.Abc_Ntk_t_ = type { i32, i32, ptr, ptr, ptr, ptr, ptr, ptr, ptr, ptr, ptr, ptr, ptr, [11 x i32], i32, i32, i32, i32, ptr, i32, ptr, ptr, i32, i32, i32, double, i32, %struct.Vec_Int_t_, ptr, ptr, ptr, ptr, ptr, float, i32, ptr, ptr, ptr, ptr, ptr, ptr, ptr, ptr, ptr, ptr, ptr, ptr, ptr, ptr, ptr, ptr, ptr, ptr, ptr, ptr, ptr, ptr }
%struct.Vec_Int_t_ = type { i32, i32, ptr }

; Function Attrs: nounwind uwtable
define void @Abc_SclUpsizePerform(ptr noundef %0, ptr noundef %1, ptr noundef %2, ptr noundef %3) #0 {
  %5 = alloca ptr, align 8
  %6 = alloca ptr, align 8
  %7 = alloca ptr, align 8
  %8 = alloca ptr, align 8
  %9 = alloca ptr, align 8
  store ptr %0, ptr %5, align 8, !tbaa !137
  store ptr %1, ptr %6, align 8, !tbaa !43
  store ptr %2, ptr %7, align 8, !tbaa !158
  store ptr %3, ptr %8, align 8, !tbaa !41
  call void @llvm.lifetime.start.p0(i64 8, ptr %9) #12
  %10 = load ptr, ptr %6, align 8, !tbaa !43
  store ptr %10, ptr %9, align 8, !tbaa !43
  %11 = load ptr, ptr %6, align 8, !tbaa !43
  %12 = getelementptr inbounds nuw %struct.Abc_Ntk_t_, ptr %11, i32 0, i32 17
  %13 = load i32, ptr %12, align 8, !tbaa !195
  %14 = icmp sgt i32 %13, 0
  br i1 %14, label %15, label %18

15:                                               ; preds = %4
  %16 = load ptr, ptr %6, align 8, !tbaa !43
  %17 = call ptr @Abc_NtkDupDfsNoBarBufs(ptr noundef %16)
  store ptr %17, ptr %9, align 8, !tbaa !43
  br label %18

18:                                               ; preds = %15, %4
  %19 = load ptr, ptr %5, align 8, !tbaa !137
  %20 = load ptr, ptr %9, align 8, !tbaa !43
  %21 = load ptr, ptr %7, align 8, !tbaa !158
  %22 = load ptr, ptr %8, align 8, !tbaa !41
  call void @Abc_SclUpsizePerformInt(ptr noundef %19, ptr noundef %20, ptr noundef %21, ptr noundef %22)
  %23 = load ptr, ptr %6, align 8, !tbaa !43
  %24 = getelementptr inbounds nuw %struct.Abc_Ntk_t_, ptr %23, i32 0, i32 17
  %25 = load i32, ptr %24, align 8, !tbaa !195
  %26 = icmp sgt i32 %25, 0
  br i1 %26, label %27, label %30

27:                                               ; preds = %18
  %28 = load ptr, ptr %6, align 8, !tbaa !43
  %29 = load ptr, ptr %9, align 8, !tbaa !43
  call void @Abc_SclTransferGates(ptr noundef %28, ptr noundef %29)
  br label %30

30:                                               ; preds = %27, %18
  %31 = load ptr, ptr %6, align 8, !tbaa !43
  %32 = getelementptr inbounds nuw %struct.Abc_Ntk_t_, ptr %31, i32 0, i32 17
  %33 = load i32, ptr %32, align 8, !tbaa !195
  %34 = icmp sgt i32 %33, 0
  br i1 %34, label %35, label %37

35:                                               ; preds = %30
  %36 = load ptr, ptr %9, align 8, !tbaa !43
  call void @Abc_NtkDelete(ptr noundef %36)
  br label %37

37:                                               ; preds = %35, %30
  call void @llvm.lifetime.end.p0(i64 8, ptr %9) #12
  ret void
}