; Function Attrs: nounwind uwtable
define void @Abc_SclUpsizePerform(ptr noundef %0, ptr noundef %1, ptr noundef captures(none) %2, ptr noundef %3) local_unnamed_addr #0 {
  %5 = getelementptr inbounds nuw i8, ptr %1, i64 152
  %6 = load i32, ptr %5, align 8, !tbaa !200
  %7 = icmp sgt i32 %6, 0
  br i1 %7, label %8, label %10

8:                                                ; preds = %4
  %9 = tail call ptr @Abc_NtkDupDfsNoBarBufs(ptr noundef nonnull %1) #27
  br label %10

10:                                               ; preds = %8, %4
  %.0 = phi ptr [ %9, %8 ], [ %1, %4 ]
  tail call void @Abc_SclUpsizePerformInt(ptr noundef %0, ptr noundef %.0, ptr noundef %2, ptr noundef %3)
  %11 = load i32, ptr %5, align 8, !tbaa !200
  %12 = icmp sgt i32 %11, 0
  br i1 %12, label %13, label %.thread

13:                                               ; preds = %10
  tail call void @Abc_SclTransferGates(ptr noundef nonnull %1, ptr noundef %.0) #27
  %.pr = load i32, ptr %5, align 8, !tbaa !200
  %14 = icmp sgt i32 %.pr, 0
  br i1 %14, label %15, label %.thread

15:                                               ; preds = %13
  tail call void @Abc_NtkDelete(ptr noundef %.0) #27
  br label %.thread

.thread:                                          ; preds = %10, %15, %13
  ret void
}